libptytty.so.0:_ZN11ptytty_unix11log_sessionEbPKc
libptytty.so.0:_ZN11ptytty_unix3getEv
libptytty.so.0:_ZN11ptytty_unix3putEv
libptytty.so.0:_ZN11ptytty_unix5loginEibPKc
libptytty.so.0:_ZN11ptytty_unixC1Ev
libptytty.so.0:_ZN11ptytty_unixC2Ev
libptytty.so.0:_ZN11ptytty_unixD0Ev
libptytty.so.0:_ZN11ptytty_unixD1Ev
libptytty.so.0:_ZN11ptytty_unixD2Ev
libptytty.so.0:_ZN12ptytty_proxy3getEv
libptytty.so.0:_ZN12ptytty_proxy5loginEibPKc
libptytty.so.0:_ZN12ptytty_proxyD0Ev
libptytty.so.0:_ZN12ptytty_proxyD1Ev
libptytty.so.0:_ZN12ptytty_proxyD2Ev
libptytty.so.0:_ZN6ptytty10use_helperEv
libptytty.so.0:_ZN6ptytty13set_utf8_modeEb
libptytty.so.0:_ZN6ptytty14sanitise_stdfdEv
libptytty.so.0:_ZN6ptytty15drop_privilegesEv
libptytty.so.0:_ZN6ptytty20make_controlling_ttyEv
libptytty.so.0:_ZN6ptytty4initEv
libptytty.so.0:_ZN6ptytty6createEv
libptytty.so.0:_ZN6ptytty7recv_fdEi
libptytty.so.0:_ZN6ptytty7send_fdEii
libptytty.so.0:_ZN6ptytty9close_ttyEv
libptytty.so.0:ptytty_close_tty
libptytty.so.0:ptytty_create
libptytty.so.0:ptytty_delete
libptytty.so.0:ptytty_drop_privileges
libptytty.so.0:ptytty_get
libptytty.so.0:ptytty_init
libptytty.so.0:ptytty_login
libptytty.so.0:ptytty_make_controlling_tty
libptytty.so.0:ptytty_pty
libptytty.so.0:ptytty_sanitise_stdfd
libptytty.so.0:ptytty_set_utf8_mode
libptytty.so.0:ptytty_tty
libptytty.so.0:ptytty_use_helper
